; Function Attrs: mustprogress noreturn uwtable
define void @_ZN5boost7process2v26detail14do_throw_errorERKNS_6system10error_codeE(ptr noundef nonnull align 8 dereferenceable(24) %0) local_unnamed_addr #3 personality ptr @__gxx_personality_v0 {
  %2 = alloca %"class.std::__cxx11::basic_string", align 8
  %3 = alloca %"class.boost::system::system_error", align 8
  call void @llvm.lifetime.start.p0(i64 40, ptr nonnull %3) #22
  call void @llvm.lifetime.start.p0(i64 32, ptr nonnull %2) #22
  call void @_ZNK5boost6system10error_code4whatB5cxx11Ev(ptr dead_on_unwind nonnull writable sret(%"class.std::__cxx11::basic_string") align 8 %2, ptr noundef nonnull align 8 dereferenceable(24) %0)
  invoke void @_ZNSt13runtime_errorC2ERKNSt7__cxx1112basic_stringIcSt11char_traitsIcESaIcEEE(ptr noundef nonnull align 8 dereferenceable(40) %3, ptr noundef nonnull align 8 dereferenceable(32) %2)
          to label %4 unwind label %13

4:                                                ; preds = %1
  %5 = load ptr, ptr %2, align 8, !tbaa !3
  %6 = getelementptr inbounds nuw i8, ptr %2, i64 16
  %7 = icmp eq ptr %5, %6
  br i1 %7, label %_ZNKSt7__cxx1112basic_stringIcSt11char_traitsIcESaIcEE11_M_is_localEv.exit.thread.i.i.i, label %_ZNKSt7__cxx1112basic_stringIcSt11char_traitsIcESaIcEE11_M_is_localEv.exit.i.i.i

_ZNKSt7__cxx1112basic_stringIcSt11char_traitsIcESaIcEE11_M_is_localEv.exit.thread.i.i.i: ; preds = %4
  %8 = getelementptr inbounds nuw i8, ptr %2, i64 8
  %9 = load i64, ptr %8, align 8, !tbaa !10
  %10 = icmp ult i64 %9, 16
  call void @llvm.assume(i1 %10)
  br label %_ZN5boost6system12system_errorC2ERKNS0_10error_codeE.exit

_ZNKSt7__cxx1112basic_stringIcSt11char_traitsIcESaIcEE11_M_is_localEv.exit.i.i.i: ; preds = %4
  %11 = load i64, ptr %6, align 8, !tbaa !11
  %12 = add i64 %11, 1
  call void @_ZdlPvm(ptr noundef %5, i64 noundef %12) #24
  br label %_ZN5boost6system12system_errorC2ERKNS0_10error_codeE.exit

13:                                               ; preds = %1
  %14 = landingpad { ptr, i32 }
          cleanup
  %15 = load ptr, ptr %2, align 8, !tbaa !3
  %16 = getelementptr inbounds nuw i8, ptr %2, i64 16
  %17 = icmp eq ptr %15, %16
  br i1 %17, label %_ZNKSt7__cxx1112basic_stringIcSt11char_traitsIcESaIcEE11_M_is_localEv.exit.thread.i.i5.i, label %_ZNKSt7__cxx1112basic_stringIcSt11char_traitsIcESaIcEE11_M_is_localEv.exit.i.i4.i

_ZNKSt7__cxx1112basic_stringIcSt11char_traitsIcESaIcEE11_M_is_localEv.exit.thread.i.i5.i: ; preds = %13
  %18 = getelementptr inbounds nuw i8, ptr %2, i64 8
  %19 = load i64, ptr %18, align 8, !tbaa !10
  %20 = icmp ult i64 %19, 16
  call void @llvm.assume(i1 %20)
  br label %_ZNSt7__cxx1112basic_stringIcSt11char_traitsIcESaIcEED2Ev.exit6.i

_ZNKSt7__cxx1112basic_stringIcSt11char_traitsIcESaIcEE11_M_is_localEv.exit.i.i4.i: ; preds = %13
  %21 = load i64, ptr %16, align 8, !tbaa !11
  %22 = add i64 %21, 1
  call void @_ZdlPvm(ptr noundef %15, i64 noundef %22) #24
  br label %_ZNSt7__cxx1112basic_stringIcSt11char_traitsIcESaIcEED2Ev.exit6.i

common.resume:                                    ; preds = %25, %_ZNSt7__cxx1112basic_stringIcSt11char_traitsIcESaIcEED2Ev.exit6.i
  %common.resume.op = phi { ptr, i32 } [ %14, %_ZNSt7__cxx1112basic_stringIcSt11char_traitsIcESaIcEED2Ev.exit6.i ], [ %26, %25 ]
  resume { ptr, i32 } %common.resume.op

_ZNSt7__cxx1112basic_stringIcSt11char_traitsIcESaIcEED2Ev.exit6.i: ; preds = %_ZNKSt7__cxx1112basic_stringIcSt11char_traitsIcESaIcEE11_M_is_localEv.exit.i.i4.i, %_ZNKSt7__cxx1112basic_stringIcSt11char_traitsIcESaIcEE11_M_is_localEv.exit.thread.i.i5.i
  call void @llvm.lifetime.end.p0(i64 32, ptr nonnull %2) #22
  br label %common.resume

_ZN5boost6system12system_errorC2ERKNS0_10error_codeE.exit: ; preds = %_ZNKSt7__cxx1112basic_stringIcSt11char_traitsIcESaIcEE11_M_is_localEv.exit.thread.i.i.i, %_ZNKSt7__cxx1112basic_stringIcSt11char_traitsIcESaIcEE11_M_is_localEv.exit.i.i.i
  call void @llvm.lifetime.end.p0(i64 32, ptr nonnull %2) #22
  store ptr getelementptr inbounds inrange(-16, 24) (i8, ptr @_ZTVN5boost6system12system_errorE, i64 16), ptr %3, align 8, !tbaa !12
  %23 = getelementptr inbounds nuw i8, ptr %3, i64 16
  call void @llvm.memcpy.p0.p0.i64(ptr noundef nonnull align 8 dereferenceable(24) %23, ptr noundef nonnull align 8 dereferenceable(24) %0, i64 24, i1 false), !tbaa.struct !14
  invoke void @_ZN5boost15throw_exceptionINS_6system12system_errorEEEvRKT_(ptr noundef nonnull align 8 dereferenceable(40) %3) #25
          to label %24 unwind label %25

24:                                               ; preds = %_ZN5boost6system12system_errorC2ERKNS0_10error_codeE.exit
  unreachable

25:                                               ; preds = %_ZN5boost6system12system_errorC2ERKNS0_10error_codeE.exit
  %26 = landingpad { ptr, i32 }
          cleanup
  call void @_ZNSt13runtime_errorD2Ev(ptr noundef nonnull align 8 dereferenceable(40) %3) #22
  call void @llvm.lifetime.end.p0(i64 40, ptr nonnull %3) #22
  br label %common.resume
}